target datalayout = "e-m:e-p270:32:32-p271:32:32-p272:64:64-i64:64-i128:128-f80:128-n8:16:32:64-S128"
target triple = "x86_64-unknown-linux-gnu"

%"class.std::__cxx11::basic_string" = type { %"struct.std::__cxx11::basic_string<char>::_Alloc_hider", i64, %union.anon.20 }
%"struct.std::__cxx11::basic_string<char>::_Alloc_hider" = type { ptr }
%union.anon.20 = type { i64, [8 x i8] }
%"class.std::__cxx11::basic_stringstream" = type { %"class.std::basic_iostream.base", %"class.std::__cxx11::basic_stringbuf", %"class.std::basic_ios" }
%"class.std::basic_iostream.base" = type { %"class.std::basic_istream.base", %"class.std::basic_ostream.base" }
%"class.std::basic_istream.base" = type { ptr, i64 }
%"class.std::basic_ostream.base" = type { ptr }
%"class.std::__cxx11::basic_stringbuf" = type { %"class.std::basic_streambuf", i32, %"class.std::__cxx11::basic_string" }
%"class.std::basic_streambuf" = type { ptr, ptr, ptr, ptr, ptr, ptr, ptr, %"class.std::locale" }
%"class.std::locale" = type { ptr }
%"class.std::basic_ios" = type { %"class.std::ios_base", ptr, i8, i8, ptr, ptr, ptr, ptr }
%"class.std::ios_base" = type { ptr, i64, i64, i32, i32, i32, ptr, %"struct.std::ios_base::_Words", [8 x %"struct.std::ios_base::_Words"], i32, ptr, %"class.std::locale" }
%"struct.std::ios_base::_Words" = type { ptr, i64 }
%"class.std::__cxx11::basic_ostringstream" = type { %"class.std::basic_ostream.base", %"class.std::__cxx11::basic_stringbuf", %"class.std::basic_ios" }
%"struct.std::_Setw" = type { i32 }
%"struct.std::_Setfill" = type { i8 }

; Function Attrs: mustprogress nounwind uwtable
define linkonce_odr i8 @_ZSt7setfillIcESt8_SetfillIT_ES1_(i8 noundef signext %__c) #1 comdat {
entry:
  %retval = alloca %"struct.std::_Setfill", align 1
  %__c.addr = alloca i8, align 1
  store i8 %__c, ptr %__c.addr, align 1
  %_M_c = getelementptr inbounds %"struct.std::_Setfill", ptr %retval, i32 0, i32 0
  %0 = load i8, ptr %__c.addr, align 1
  store i8 %0, ptr %_M_c, align 1
  %coerce.dive = getelementptr inbounds %"struct.std::_Setfill", ptr %retval, i32 0, i32 0
  %1 = load i8, ptr %coerce.dive, align 1
  ret i8 %1
}

; Function Attrs: mustprogress nounwind uwtable
define linkonce_odr i32 @_ZSt4setwi(i32 noundef %__n) #1 comdat {
entry:
  %retval = alloca %"struct.std::_Setw", align 4
  %__n.addr = alloca i32, align 4
  store i32 %__n, ptr %__n.addr, align 4
  %_M_n = getelementptr inbounds %"struct.std::_Setw", ptr %retval, i32 0, i32 0
  %0 = load i32, ptr %__n.addr, align 4
  store i32 %0, ptr %_M_n, align 4
  %coerce.dive = getelementptr inbounds %"struct.std::_Setw", ptr %retval, i32 0, i32 0
  %1 = load i32, ptr %coerce.dive, align 4
  ret i32 %1
}

; Function Attrs: mustprogress uwtable
define hidden void @_ZN18OpenImageIO_v2_6_08DPXInput19get_timecode_stringB5cxx11ERN7Imf_2_58TimeCodeE(ptr noalias sret(%"class.std::__cxx11::basic_string") align 8 %agg.result, ptr noundef nonnull align 8 dereferenceable(2400) %this, ptr noundef nonnull align 4 dereferenceable(8) %tc) #6 align 2 personality ptr @__gxx_personality_v0 {
entry:
  %result.ptr = alloca ptr, align 8
  %this.addr = alloca ptr, align 8
  %tc.addr = alloca ptr, align 8
  %values = alloca [4 x i32], align 16
  %ss = alloca %"class.std::__cxx11::basic_stringstream", align 8
  %i = alloca i32, align 4
  %padded = alloca %"class.std::__cxx11::basic_ostringstream", align 8
  %exn.slot = alloca ptr, align 8
  %ehselector.slot = alloca i32, align 4
  %agg.tmp = alloca %"struct.std::_Setw", align 4
  %agg.tmp13 = alloca %"struct.std::_Setfill", align 1
  %ref.tmp = alloca %"class.std::__cxx11::basic_string", align 8
  store ptr %agg.result, ptr %result.ptr, align 8
  store ptr %this, ptr %this.addr, align 8
  store ptr %tc, ptr %tc.addr, align 8
  %arrayinit.begin = getelementptr inbounds [4 x i32], ptr %values, i64 0, i64 0
  %0 = load ptr, ptr %tc.addr, align 8
  %call = call noundef i32 @_ZNK7Imf_2_58TimeCode5hoursEv(ptr noundef nonnull align 4 dereferenceable(8) %0)
  store i32 %call, ptr %arrayinit.begin, align 4
  %arrayinit.element = getelementptr inbounds i32, ptr %arrayinit.begin, i64 1
  %1 = load ptr, ptr %tc.addr, align 8
  %call2 = call noundef i32 @_ZNK7Imf_2_58TimeCode7minutesEv(ptr noundef nonnull align 4 dereferenceable(8) %1)
  store i32 %call2, ptr %arrayinit.element, align 4
  %arrayinit.element3 = getelementptr inbounds i32, ptr %arrayinit.element, i64 1
  %2 = load ptr, ptr %tc.addr, align 8
  %call4 = call noundef i32 @_ZNK7Imf_2_58TimeCode7secondsEv(ptr noundef nonnull align 4 dereferenceable(8) %2)
  store i32 %call4, ptr %arrayinit.element3, align 4
  %arrayinit.element5 = getelementptr inbounds i32, ptr %arrayinit.element3, i64 1
  %3 = load ptr, ptr %tc.addr, align 8
  %call6 = call noundef i32 @_ZNK7Imf_2_58TimeCode5frameEv(ptr noundef nonnull align 4 dereferenceable(8) %3)
  store i32 %call6, ptr %arrayinit.element5, align 4
  call void @_ZNSt7__cxx1118basic_stringstreamIcSt11char_traitsIcESaIcEEC1Ev(ptr noundef nonnull align 8 dereferenceable(128) %ss)
  store i32 0, ptr %i, align 4
  br label %for.cond

for.cond:                                         ; preds = %for.inc, %entry
  %4 = load i32, ptr %i, align 4
  %cmp = icmp slt i32 %4, 4
  br i1 %cmp, label %for.body, label %for.end

for.body:                                         ; preds = %for.cond
  invoke void @_ZNSt7__cxx1119basic_ostringstreamIcSt11char_traitsIcESaIcEEC1Ev(ptr noundef nonnull align 8 dereferenceable(112) %padded)
          to label %invoke.cont unwind label %lpad

invoke.cont:                                      ; preds = %for.body
  %call9 = invoke i32 @_ZSt4setwi(i32 noundef 2)
          to label %invoke.cont8 unwind label %lpad7

invoke.cont8:                                     ; preds = %invoke.cont
  %coerce.dive = getelementptr inbounds %"struct.std::_Setw", ptr %agg.tmp, i32 0, i32 0
  store i32 %call9, ptr %coerce.dive, align 4
  %coerce.dive10 = getelementptr inbounds %"struct.std::_Setw", ptr %agg.tmp, i32 0, i32 0
  %5 = load i32, ptr %coerce.dive10, align 4
  %call12 = invoke noundef nonnull align 8 dereferenceable(8) ptr @_ZStlsIcSt11char_traitsIcEERSt13basic_ostreamIT_T0_ES6_St5_Setw(ptr noundef nonnull align 8 dereferenceable(8) %padded, i32 %5)
          to label %invoke.cont11 unwind label %lpad7

invoke.cont11:                                    ; preds = %invoke.cont8
  %call15 = invoke i8 @_ZSt7setfillIcESt8_SetfillIT_ES1_(i8 noundef signext 48)
          to label %invoke.cont14 unwind label %lpad7

invoke.cont14:                                    ; preds = %invoke.cont11
  %coerce.dive16 = getelementptr inbounds %"struct.std::_Setfill", ptr %agg.tmp13, i32 0, i32 0
  store i8 %call15, ptr %coerce.dive16, align 1
  %coerce.dive17 = getelementptr inbounds %"struct.std::_Setfill", ptr %agg.tmp13, i32 0, i32 0
  %6 = load i8, ptr %coerce.dive17, align 1
  %call19 = invoke noundef nonnull align 8 dereferenceable(8) ptr @_ZStlsIcSt11char_traitsIcEERSt13basic_ostreamIT_T0_ES6_St8_SetfillIS3_E(ptr noundef nonnull align 8 dereferenceable(8) %call12, i8 %6)
          to label %invoke.cont18 unwind label %lpad7

invoke.cont18:                                    ; preds = %invoke.cont14
  %7 = load i32, ptr %i, align 4
  %idxprom = sext i32 %7 to i64
  %arrayidx = getelementptr inbounds [4 x i32], ptr %values, i64 0, i64 %idxprom
  %8 = load i32, ptr %arrayidx, align 4
  %call21 = invoke noundef nonnull align 8 dereferenceable(8) ptr @_ZNSolsEi(ptr noundef nonnull align 8 dereferenceable(8) %call19, i32 noundef %8)
          to label %invoke.cont20 unwind label %lpad7

invoke.cont20:                                    ; preds = %invoke.cont18
  %add.ptr = getelementptr inbounds i8, ptr %ss, i64 16
  invoke void @_ZNKSt7__cxx1119basic_ostringstreamIcSt11char_traitsIcESaIcEE3strEv(ptr sret(%"class.std::__cxx11::basic_string") align 8 %ref.tmp, ptr noundef nonnull align 8 dereferenceable(112) %padded)
          to label %invoke.cont22 unwind label %lpad7

invoke.cont22:                                    ; preds = %invoke.cont20
  %call25 = invoke noundef nonnull align 8 dereferenceable(8) ptr @_ZStlsIcSt11char_traitsIcESaIcEERSt13basic_ostreamIT_T0_ES7_RKNSt7__cxx1112basic_stringIS4_S5_T1_EE(ptr noundef nonnull align 8 dereferenceable(8) %add.ptr, ptr noundef nonnull align 8 dereferenceable(32) %ref.tmp)
          to label %invoke.cont24 unwind label %lpad23

invoke.cont24:                                    ; preds = %invoke.cont22
  call void @_ZNSt7__cxx1112basic_stringIcSt11char_traitsIcESaIcEED1Ev(ptr noundef nonnull align 8 dereferenceable(32) %ref.tmp) #5
  %9 = load i32, ptr %i, align 4
  %cmp26 = icmp ne i32 %9, 3
  br i1 %cmp26, label %if.then, label %if.end40

if.then:                                          ; preds = %invoke.cont24
  %10 = load i32, ptr %i, align 4
  %cmp27 = icmp eq i32 %10, 2
  br i1 %cmp27, label %if.then28, label %if.else

if.then28:                                        ; preds = %if.then
  %11 = load ptr, ptr %tc.addr, align 8
  %call30 = invoke noundef zeroext i1 @_ZNK7Imf_2_58TimeCode9dropFrameEv(ptr noundef nonnull align 4 dereferenceable(8) %11)
          to label %invoke.cont29 unwind label %lpad7

invoke.cont29:                                    ; preds = %if.then28
  br i1 %call30, label %cond.true, label %cond.false

cond.true:                                        ; preds = %invoke.cont29
  %add.ptr31 = getelementptr inbounds i8, ptr %ss, i64 16
  %call33 = invoke noundef nonnull align 8 dereferenceable(8) ptr @_ZStlsISt11char_traitsIcEERSt13basic_ostreamIcT_ES5_c(ptr noundef nonnull align 8 dereferenceable(8) %add.ptr31, i8 noundef signext 59)
          to label %invoke.cont32 unwind label %lpad7

invoke.cont32:                                    ; preds = %cond.true
  br label %cond.end

cond.false:                                       ; preds = %invoke.cont29
  %add.ptr34 = getelementptr inbounds i8, ptr %ss, i64 16
  %call36 = invoke noundef nonnull align 8 dereferenceable(8) ptr @_ZStlsISt11char_traitsIcEERSt13basic_ostreamIcT_ES5_c(ptr noundef nonnull align 8 dereferenceable(8) %add.ptr34, i8 noundef signext 58)
          to label %invoke.cont35 unwind label %lpad7

invoke.cont35:                                    ; preds = %cond.false
  br label %cond.end

cond.end:                                         ; preds = %invoke.cont35, %invoke.cont32
  br label %if.end

lpad:                                             ; preds = %for.end, %for.body
  %12 = landingpad { ptr, i32 }
          cleanup
  %13 = extractvalue { ptr, i32 } %12, 0
  store ptr %13, ptr %exn.slot, align 8
  %14 = extractvalue { ptr, i32 } %12, 1
  store i32 %14, ptr %ehselector.slot, align 4
  br label %ehcleanup42

lpad7:                                            ; preds = %if.else, %cond.false, %cond.true, %if.then28, %invoke.cont20, %invoke.cont18, %invoke.cont14, %invoke.cont11, %invoke.cont8, %invoke.cont
  %15 = landingpad { ptr, i32 }
          cleanup
  %16 = extractvalue { ptr, i32 } %15, 0
  store ptr %16, ptr %exn.slot, align 8
  %17 = extractvalue { ptr, i32 } %15, 1
  store i32 %17, ptr %ehselector.slot, align 4
  br label %ehcleanup

lpad23:                                           ; preds = %invoke.cont22
  %18 = landingpad { ptr, i32 }
          cleanup
  %19 = extractvalue { ptr, i32 } %18, 0
  store ptr %19, ptr %exn.slot, align 8
  %20 = extractvalue { ptr, i32 } %18, 1
  store i32 %20, ptr %ehselector.slot, align 4
  call void @_ZNSt7__cxx1112basic_stringIcSt11char_traitsIcESaIcEED1Ev(ptr noundef nonnull align 8 dereferenceable(32) %ref.tmp) #5
  br label %ehcleanup

if.else:                                          ; preds = %if.then
  %add.ptr37 = getelementptr inbounds i8, ptr %ss, i64 16
  %call39 = invoke noundef nonnull align 8 dereferenceable(8) ptr @_ZStlsISt11char_traitsIcEERSt13basic_ostreamIcT_ES5_c(ptr noundef nonnull align 8 dereferenceable(8) %add.ptr37, i8 noundef signext 58)
          to label %invoke.cont38 unwind label %lpad7

invoke.cont38:                                    ; preds = %if.else
  br label %if.end

if.end:                                           ; preds = %invoke.cont38, %cond.end
  br label %if.end40

if.end40:                                         ; preds = %if.end, %invoke.cont24
  call void @_ZNSt7__cxx1119basic_ostringstreamIcSt11char_traitsIcESaIcEED1Ev(ptr noundef nonnull align 8 dereferenceable(112) %padded) #5
  br label %for.inc

for.inc:                                          ; preds = %if.end40
  %21 = load i32, ptr %i, align 4
  %inc = add nsw i32 %21, 1
  store i32 %inc, ptr %i, align 4
  br label %for.cond, !llvm.loop !6

ehcleanup:                                        ; preds = %lpad23, %lpad7
  call void @_ZNSt7__cxx1119basic_ostringstreamIcSt11char_traitsIcESaIcEED1Ev(ptr noundef nonnull align 8 dereferenceable(112) %padded) #5
  br label %ehcleanup42

for.end:                                          ; preds = %for.cond
  invoke void @_ZNKSt7__cxx1118basic_stringstreamIcSt11char_traitsIcESaIcEE3strEv(ptr sret(%"class.std::__cxx11::basic_string") align 8 %agg.result, ptr noundef nonnull align 8 dereferenceable(128) %ss)
          to label %invoke.cont41 unwind label %lpad

invoke.cont41:                                    ; preds = %for.end
  call void @_ZNSt7__cxx1118basic_stringstreamIcSt11char_traitsIcESaIcEED1Ev(ptr noundef nonnull align 8 dereferenceable(128) %ss) #5
  ret void

ehcleanup42:                                      ; preds = %ehcleanup, %lpad
  call void @_ZNSt7__cxx1118basic_stringstreamIcSt11char_traitsIcESaIcEED1Ev(ptr noundef nonnull align 8 dereferenceable(128) %ss) #5
  br label %eh.resume

eh.resume:                                        ; preds = %ehcleanup42
  %exn = load ptr, ptr %exn.slot, align 8
  %sel = load i32, ptr %ehselector.slot, align 4
  %lpad.val = insertvalue { ptr, i32 } poison, ptr %exn, 0
  %lpad.val43 = insertvalue { ptr, i32 } %lpad.val, i32 %sel, 1
  resume { ptr, i32 } %lpad.val43
}