; Function Attrs: mustprogress uwtable
define hidden void @_ZN18OpenImageIO_v2_6_08DPXInput19get_timecode_stringB5cxx11ERN7Imf_2_58TimeCodeE(ptr noalias sret(%"class.std::__cxx11::basic_string") align 8 %agg.result, ptr nocapture nonnull readnone align 8 %this, ptr noundef nonnull align 4 dereferenceable(8) %tc) local_unnamed_addr #5 align 2 personality ptr @__gxx_personality_v0 {
entry:
  %values = alloca [4 x i32], align 16
  %ss = alloca %"class.std::__cxx11::basic_stringstream", align 8
  %padded = alloca %"class.std::__cxx11::basic_ostringstream", align 8
  %ref.tmp = alloca %"class.std::__cxx11::basic_string", align 8
  %call = tail call noundef i32 @_ZNK7Imf_2_58TimeCode5hoursEv(ptr noundef nonnull align 4 dereferenceable(8) %tc)
  store i32 %call, ptr %values, align 16
  %arrayinit.element = getelementptr inbounds i8, ptr %values, i64 4
  %call2 = tail call noundef i32 @_ZNK7Imf_2_58TimeCode7minutesEv(ptr noundef nonnull align 4 dereferenceable(8) %tc)
  store i32 %call2, ptr %arrayinit.element, align 4
  %arrayinit.element3 = getelementptr inbounds i8, ptr %values, i64 8
  %call4 = tail call noundef i32 @_ZNK7Imf_2_58TimeCode7secondsEv(ptr noundef nonnull align 4 dereferenceable(8) %tc)
  store i32 %call4, ptr %arrayinit.element3, align 8
  %arrayinit.element5 = getelementptr inbounds i8, ptr %values, i64 12
  %call6 = tail call noundef i32 @_ZNK7Imf_2_58TimeCode5frameEv(ptr noundef nonnull align 4 dereferenceable(8) %tc)
  store i32 %call6, ptr %arrayinit.element5, align 4
  call void @_ZNSt7__cxx1118basic_stringstreamIcSt11char_traitsIcESaIcEEC1Ev(ptr noundef nonnull align 8 dereferenceable(128) %ss)
  %add.ptr = getelementptr inbounds i8, ptr %ss, i64 16
  br label %for.body

for.body:                                         ; preds = %entry, %if.end40
  %indvars.iv = phi i64 [ 0, %entry ], [ %indvars.iv.next, %if.end40 ]
  invoke void @_ZNSt7__cxx1119basic_ostringstreamIcSt11char_traitsIcESaIcEEC1Ev(ptr noundef nonnull align 8 dereferenceable(112) %padded)
          to label %invoke.cont unwind label %lpad.loopexit

invoke.cont:                                      ; preds = %for.body
  %call12 = invoke noundef nonnull align 8 dereferenceable(8) ptr @_ZStlsIcSt11char_traitsIcEERSt13basic_ostreamIT_T0_ES6_St5_Setw(ptr noundef nonnull align 8 dereferenceable(8) %padded, i32 2)
          to label %invoke.cont11 unwind label %lpad7

invoke.cont11:                                    ; preds = %invoke.cont
  %call19 = invoke noundef nonnull align 8 dereferenceable(8) ptr @_ZStlsIcSt11char_traitsIcEERSt13basic_ostreamIT_T0_ES6_St8_SetfillIS3_E(ptr noundef nonnull align 8 dereferenceable(8) %call12, i8 48)
          to label %invoke.cont18 unwind label %lpad7

invoke.cont18:                                    ; preds = %invoke.cont11
  %arrayidx = getelementptr inbounds [4 x i32], ptr %values, i64 0, i64 %indvars.iv
  %0 = load i32, ptr %arrayidx, align 4
  %call21 = invoke noundef nonnull align 8 dereferenceable(8) ptr @_ZNSolsEi(ptr noundef nonnull align 8 dereferenceable(8) %call19, i32 noundef %0)
          to label %invoke.cont20 unwind label %lpad7

invoke.cont20:                                    ; preds = %invoke.cont18
  invoke void @_ZNKSt7__cxx1119basic_ostringstreamIcSt11char_traitsIcESaIcEE3strEv(ptr nonnull sret(%"class.std::__cxx11::basic_string") align 8 %ref.tmp, ptr noundef nonnull align 8 dereferenceable(112) %padded)
          to label %invoke.cont22 unwind label %lpad7

invoke.cont22:                                    ; preds = %invoke.cont20
  %call25 = invoke noundef nonnull align 8 dereferenceable(8) ptr @_ZStlsIcSt11char_traitsIcESaIcEERSt13basic_ostreamIT_T0_ES7_RKNSt7__cxx1112basic_stringIS4_S5_T1_EE(ptr noundef nonnull align 8 dereferenceable(8) %add.ptr, ptr noundef nonnull align 8 dereferenceable(32) %ref.tmp)
          to label %invoke.cont24 unwind label %lpad23

invoke.cont24:                                    ; preds = %invoke.cont22
  call void @_ZNSt7__cxx1112basic_stringIcSt11char_traitsIcESaIcEED1Ev(ptr noundef nonnull align 8 dereferenceable(32) %ref.tmp) #21
  %1 = trunc i64 %indvars.iv to i32
  switch i32 %1, label %if.else.invoke [
    i32 3, label %if.end40
    i32 2, label %if.then28
  ]

if.then28:                                        ; preds = %invoke.cont24
  %call30 = invoke noundef zeroext i1 @_ZNK7Imf_2_58TimeCode9dropFrameEv(ptr noundef nonnull align 4 dereferenceable(8) %tc)
          to label %invoke.cont29 unwind label %lpad7

invoke.cont29:                                    ; preds = %if.then28
  %. = select i1 %call30, i8 59, i8 58
  br label %if.else.invoke

lpad.loopexit:                                    ; preds = %for.body
  %lpad.loopexit11 = landingpad { ptr, i32 }
          cleanup
  br label %ehcleanup42

lpad.loopexit.split-lp:                           ; preds = %for.end
  %lpad.loopexit.split-lp12 = landingpad { ptr, i32 }
          cleanup
  br label %ehcleanup42

lpad7:                                            ; preds = %if.else.invoke, %if.then28, %invoke.cont20, %invoke.cont18, %invoke.cont11, %invoke.cont
  %2 = landingpad { ptr, i32 }
          cleanup
  br label %ehcleanup

lpad23:                                           ; preds = %invoke.cont22
  %3 = landingpad { ptr, i32 }
          cleanup
  call void @_ZNSt7__cxx1112basic_stringIcSt11char_traitsIcESaIcEED1Ev(ptr noundef nonnull align 8 dereferenceable(32) %ref.tmp) #21
  br label %ehcleanup

if.else.invoke:                                   ; preds = %invoke.cont29, %invoke.cont24
  %4 = phi i8 [ 58, %invoke.cont24 ], [ %., %invoke.cont29 ]
  %5 = invoke noundef nonnull align 8 dereferenceable(8) ptr @_ZStlsISt11char_traitsIcEERSt13basic_ostreamIcT_ES5_c(ptr noundef nonnull align 8 dereferenceable(8) %add.ptr, i8 noundef signext %4)
          to label %if.end40 unwind label %lpad7

if.end40:                                         ; preds = %if.else.invoke, %invoke.cont24
  call void @_ZNSt7__cxx1119basic_ostringstreamIcSt11char_traitsIcESaIcEED1Ev(ptr noundef nonnull align 8 dereferenceable(112) %padded) #21
  %indvars.iv.next = add nuw nsw i64 %indvars.iv, 1
  %exitcond.not = icmp eq i64 %indvars.iv.next, 4
  br i1 %exitcond.not, label %for.end, label %for.body, !llvm.loop !14

ehcleanup:                                        ; preds = %lpad23, %lpad7
  %.pn = phi { ptr, i32 } [ %2, %lpad7 ], [ %3, %lpad23 ]
  call void @_ZNSt7__cxx1119basic_ostringstreamIcSt11char_traitsIcESaIcEED1Ev(ptr noundef nonnull align 8 dereferenceable(112) %padded) #21
  br label %ehcleanup42

for.end:                                          ; preds = %if.end40
  invoke void @_ZNKSt7__cxx1118basic_stringstreamIcSt11char_traitsIcESaIcEE3strEv(ptr sret(%"class.std::__cxx11::basic_string") align 8 %agg.result, ptr noundef nonnull align 8 dereferenceable(128) %ss)
          to label %invoke.cont41 unwind label %lpad.loopexit.split-lp

invoke.cont41:                                    ; preds = %for.end
  call void @_ZNSt7__cxx1118basic_stringstreamIcSt11char_traitsIcESaIcEED1Ev(ptr noundef nonnull align 8 dereferenceable(128) %ss) #21
  ret void

ehcleanup42:                                      ; preds = %lpad.loopexit, %lpad.loopexit.split-lp, %ehcleanup
  %.pn.pn = phi { ptr, i32 } [ %.pn, %ehcleanup ], [ %lpad.loopexit11, %lpad.loopexit ], [ %lpad.loopexit.split-lp12, %lpad.loopexit.split-lp ]
  call void @_ZNSt7__cxx1118basic_stringstreamIcSt11char_traitsIcESaIcEED1Ev(ptr noundef nonnull align 8 dereferenceable(128) %ss) #21
  resume { ptr, i32 } %.pn.pn
}